target datalayout = "e-m:e-p270:32:32-p271:32:32-p272:64:64-i64:64-i128:128-f80:128-n8:16:32:64-S128"
target triple = "x86_64-pc-linux-gnu"

%class.LockFreeStack = type { ptr }
%"class.DerivedPointerTable::Entry" = type { ptr, i64, ptr }
%"struct.Atomic::XchgImpl" = type { i8 }
%"struct.Atomic::PlatformXchg" = type { i8 }

@_ZN19DerivedPointerTable5Entry5_listE = hidden global ptr null, align 8
@_ZN19DerivedPointerTable7_activeE = hidden global i8 0, align 1

; Function Attrs: mustprogress nounwind uwtable
define linkonce_odr hidden noundef ptr @_ZNK6Atomic12PlatformXchgILm8EEclIPN19DerivedPointerTable5EntryEEET_PVS6_S6_19atomic_memory_order(ptr noundef nonnull align 1 dereferenceable(1) %0, ptr noundef %1, ptr noundef %2, i32 noundef %3) #1 comdat align 2 {
  %5 = alloca ptr, align 8
  %6 = alloca ptr, align 8
  %7 = alloca ptr, align 8
  %8 = alloca i32, align 4
  store ptr %0, ptr %5, align 8
  store ptr %1, ptr %6, align 8
  store ptr %2, ptr %7, align 8
  store i32 %3, ptr %8, align 4
  %9 = load ptr, ptr %7, align 8
  %10 = load ptr, ptr %6, align 8
  %11 = call ptr asm sideeffect "xchgq ($2),$0", "=r,0,r,~{memory},~{dirflag},~{fpsr},~{flags}"(ptr %9, ptr %10) #7, !srcloc !42
  store ptr %11, ptr %7, align 8
  %12 = load ptr, ptr %7, align 8
  ret ptr %12
}

; Function Attrs: mustprogress nounwind uwtable
define linkonce_odr hidden noundef ptr @_ZNK6Atomic8XchgImplIPN19DerivedPointerTable5EntryES3_vEclEPVS3_S3_19atomic_memory_order(ptr noundef nonnull align 1 dereferenceable(1) %0, ptr noundef %1, ptr noundef %2, i32 noundef %3) #1 comdat align 2 {
  %5 = alloca ptr, align 8
  %6 = alloca ptr, align 8
  %7 = alloca ptr, align 8
  %8 = alloca i32, align 4
  %9 = alloca ptr, align 8
  %10 = alloca %"struct.Atomic::PlatformXchg", align 1
  store ptr %0, ptr %5, align 8
  store ptr %1, ptr %6, align 8
  store ptr %2, ptr %7, align 8
  store i32 %3, ptr %8, align 4
  %11 = load ptr, ptr %7, align 8
  store ptr %11, ptr %9, align 8
  %12 = load ptr, ptr %6, align 8
  %13 = load ptr, ptr %9, align 8
  %14 = load i32, ptr %8, align 4
  %15 = call noundef ptr @_ZNK6Atomic12PlatformXchgILm8EEclIPN19DerivedPointerTable5EntryEEET_PVS6_S6_19atomic_memory_order(ptr noundef nonnull align 1 dereferenceable(1) %10, ptr noundef %12, ptr noundef %13, i32 noundef %14)
  ret ptr %15
}

; Function Attrs: mustprogress nounwind uwtable
define linkonce_odr hidden void @_ZN12CHeapObjBasedlEPv(ptr noundef %0) #1 comdat align 2 {
  %2 = alloca ptr, align 8
  store ptr %0, ptr %2, align 8
  %3 = load ptr, ptr %2, align 8
  call void @_Z8FreeHeapPv(ptr noundef %3)
  ret void
}

; Function Attrs: mustprogress nounwind uwtable
define internal noundef i64 @_ZL21derived_pointer_value15derived_pointer(i64 noundef %0) #1 {
  %2 = alloca i64, align 8
  store i64 %0, ptr %2, align 8
  %3 = load i64, ptr %2, align 8
  ret i64 %3
}

; Function Attrs: mustprogress nounwind uwtable
define linkonce_odr hidden noundef ptr @_ZN6Atomic4xchgIPN19DerivedPointerTable5EntryES3_EET_PVS4_T0_19atomic_memory_order(ptr noundef %0, ptr noundef %1, i32 noundef %2) #1 comdat align 2 {
  %4 = alloca ptr, align 8
  %5 = alloca ptr, align 8
  %6 = alloca i32, align 4
  %7 = alloca %"struct.Atomic::XchgImpl", align 1
  store ptr %0, ptr %4, align 8
  store ptr %1, ptr %5, align 8
  store i32 %2, ptr %6, align 4
  %8 = load ptr, ptr %4, align 8
  %9 = load ptr, ptr %5, align 8
  %10 = load i32, ptr %6, align 4
  %11 = call noundef ptr @_ZNK6Atomic8XchgImplIPN19DerivedPointerTable5EntryES3_vEclEPVS3_S3_19atomic_memory_order(ptr noundef nonnull align 1 dereferenceable(1) %7, ptr noundef %8, ptr noundef %9, i32 noundef %10)
  ret ptr %11
}

; Function Attrs: mustprogress nounwind uwtable
define linkonce_odr hidden void @_ZN8CHeapObjIL8MEMFLAGS7EEdlEPv(ptr noundef %0) #1 comdat align 2 {
  %2 = alloca ptr, align 8
  store ptr %0, ptr %2, align 8
  %3 = load ptr, ptr %2, align 8
  call void @_ZN12CHeapObjBasedlEPv(ptr noundef %3) #7
  ret void
}

; Function Attrs: mustprogress nounwind uwtable
define internal noundef i64 @_Zpl15derived_pointerl(i64 noundef %0, i64 noundef %1) #1 {
  %3 = alloca i64, align 8
  %4 = alloca i64, align 8
  store i64 %0, ptr %3, align 8
  store i64 %1, ptr %4, align 8
  %5 = load i64, ptr %3, align 8
  %6 = call noundef i64 @_ZL21derived_pointer_value15derived_pointer(i64 noundef %5)
  %7 = load i64, ptr %4, align 8
  %8 = add nsw i64 %6, %7
  ret i64 %8
}

; Function Attrs: mustprogress nounwind uwtable
define internal noundef i64 @_ZL18to_derived_pointerl(i64 noundef %0) #1 {
  %2 = alloca i64, align 8
  store i64 %0, ptr %2, align 8
  %3 = load i64, ptr %2, align 8
  ret i64 %3
}

; Function Attrs: mustprogress nounwind uwtable
define linkonce_odr hidden noundef i64 @_Z13cast_from_oopIlET_P7oopDesc(ptr noundef %0) #1 comdat {
  %2 = alloca ptr, align 8
  store ptr %0, ptr %2, align 8
  %3 = load ptr, ptr %2, align 8
  %4 = ptrtoint ptr %3 to i64
  ret i64 %4
}

; Function Attrs: mustprogress nounwind uwtable
define linkonce_odr hidden noundef i64 @_ZNK19DerivedPointerTable5Entry6offsetEv(ptr noundef nonnull align 8 dereferenceable(24) %0) #1 comdat align 2 {
  %2 = alloca ptr, align 8
  store ptr %0, ptr %2, align 8
  %3 = load ptr, ptr %2, align 8
  %4 = getelementptr inbounds %"class.DerivedPointerTable::Entry", ptr %3, i32 0, i32 1
  %5 = load i64, ptr %4, align 8
  ret i64 %5
}

; Function Attrs: mustprogress nounwind uwtable
define linkonce_odr hidden noundef ptr @_ZNK19DerivedPointerTable5Entry8locationEv(ptr noundef nonnull align 8 dereferenceable(24) %0) #1 comdat align 2 {
  %2 = alloca ptr, align 8
  store ptr %0, ptr %2, align 8
  %3 = load ptr, ptr %2, align 8
  %4 = getelementptr inbounds %"class.DerivedPointerTable::Entry", ptr %3, i32 0, i32 0
  %5 = load ptr, ptr %4, align 8
  ret ptr %5
}

; Function Attrs: mustprogress nounwind uwtable
define linkonce_odr hidden noundef ptr @_ZNK19DerivedPointerTable5Entry4nextEv(ptr noundef nonnull align 8 dereferenceable(24) %0) #1 comdat align 2 {
  %2 = alloca ptr, align 8
  store ptr %0, ptr %2, align 8
  %3 = load ptr, ptr %2, align 8
  %4 = getelementptr inbounds %"class.DerivedPointerTable::Entry", ptr %3, i32 0, i32 2
  %5 = load volatile ptr, ptr %4, align 8
  ret ptr %5
}

; Function Attrs: mustprogress nounwind uwtable
define linkonce_odr hidden noundef ptr @_ZN13LockFreeStackIN19DerivedPointerTable5EntryEXadL_ZNS1_8next_ptrERS1_EEE7pop_allEv(ptr noundef nonnull align 8 dereferenceable(8) %0) #1 comdat align 2 {
  %2 = alloca ptr, align 8
  store ptr %0, ptr %2, align 8
  %3 = load ptr, ptr %2, align 8
  %4 = getelementptr inbounds %class.LockFreeStack, ptr %3, i32 0, i32 0
  %5 = call noundef ptr @_ZN6Atomic4xchgIPN19DerivedPointerTable5EntryES3_EET_PVS4_T0_19atomic_memory_order(ptr noundef %4, ptr noundef null, i32 noundef 8)
  ret ptr %5
}

; Function Attrs: mustprogress nounwind uwtable
define hidden void @_ZN19DerivedPointerTable15update_pointersEv() #1 align 2 {
  %1 = alloca ptr, align 8
  %2 = alloca ptr, align 8
  %3 = alloca ptr, align 8
  %4 = alloca i64, align 8
  %5 = alloca ptr, align 8
  %6 = alloca i64, align 8
  %7 = load ptr, ptr @_ZN19DerivedPointerTable5Entry5_listE, align 8
  %8 = call noundef ptr @_ZN13LockFreeStackIN19DerivedPointerTable5EntryEXadL_ZNS1_8next_ptrERS1_EEE7pop_allEv(ptr noundef nonnull align 8 dereferenceable(8) %7)
  store ptr %8, ptr %1, align 8
  br label %9

9:                                                ; preds = %33, %0
  %10 = load ptr, ptr %1, align 8
  %11 = icmp ne ptr %10, null
  br i1 %11, label %12, label %34

12:                                               ; preds = %9
  %13 = load ptr, ptr %1, align 8
  store ptr %13, ptr %2, align 8
  %14 = load ptr, ptr %2, align 8
  %15 = call noundef ptr @_ZNK19DerivedPointerTable5Entry4nextEv(ptr noundef nonnull align 8 dereferenceable(24) %14)
  store ptr %15, ptr %1, align 8
  %16 = load ptr, ptr %2, align 8
  %17 = call noundef ptr @_ZNK19DerivedPointerTable5Entry8locationEv(ptr noundef nonnull align 8 dereferenceable(24) %16)
  store ptr %17, ptr %3, align 8
  %18 = load ptr, ptr %2, align 8
  %19 = call noundef i64 @_ZNK19DerivedPointerTable5Entry6offsetEv(ptr noundef nonnull align 8 dereferenceable(24) %18)
  store i64 %19, ptr %4, align 8
  %20 = load ptr, ptr %3, align 8
  %21 = load ptr, ptr %20, align 8
  %22 = load ptr, ptr %21, align 8
  store ptr %22, ptr %5, align 8
  %23 = load ptr, ptr %5, align 8
  %24 = call noundef i64 @_Z13cast_from_oopIlET_P7oopDesc(ptr noundef %23)
  %25 = call noundef i64 @_ZL18to_derived_pointerl(i64 noundef %24)
  store i64 %25, ptr %6, align 8
  %26 = load i64, ptr %6, align 8
  %27 = load i64, ptr %4, align 8
  %28 = call noundef i64 @_Zpl15derived_pointerl(i64 noundef %26, i64 noundef %27)
  %29 = load ptr, ptr %3, align 8
  store i64 %28, ptr %29, align 8
  %30 = load ptr, ptr %2, align 8
  %31 = icmp eq ptr %30, null
  br i1 %31, label %33, label %32

32:                                               ; preds = %12
  call void @_ZN8CHeapObjIL8MEMFLAGS7EEdlEPv(ptr noundef %30) #7
  br label %33

33:                                               ; preds = %32, %12
  br label %9, !llvm.loop !30

34:                                               ; preds = %9
  store i8 0, ptr @_ZN19DerivedPointerTable7_activeE, align 1
  ret void
}