; Function Attrs: mustprogress nounwind uwtable
define hidden void @_ZN19DerivedPointerTable15update_pointersEv() local_unnamed_addr #2 align 2 {
  %1 = load ptr, ptr @_ZN19DerivedPointerTable5Entry5_listE, align 8
  %2 = tail call noundef ptr asm sideeffect "xchgq ($2),$0", "=r,0,r,~{memory},~{dirflag},~{fpsr},~{flags}"(ptr null, ptr nonnull %1) #19, !srcloc !34
  %.not10 = icmp eq ptr %2, null
  br i1 %.not10, label %._crit_edge, label %.lr.ph

.lr.ph:                                           ; preds = %0, %.lr.ph
  %.011 = phi ptr [ %4, %.lr.ph ], [ %2, %0 ]
  %3 = getelementptr inbounds i8, ptr %.011, i64 16
  %4 = load volatile ptr, ptr %3, align 8
  %5 = load ptr, ptr %.011, align 8
  %6 = getelementptr inbounds i8, ptr %.011, i64 8
  %7 = load i64, ptr %6, align 8
  %8 = load ptr, ptr %5, align 8
  %9 = load ptr, ptr %8, align 8
  %10 = ptrtoint ptr %9 to i64
  %11 = add nsw i64 %7, %10
  store i64 %11, ptr %5, align 8
  tail call void @_Z8FreeHeapPv(ptr noundef nonnull %.011) #19
  %.not = icmp eq ptr %4, null
  br i1 %.not, label %._crit_edge, label %.lr.ph, !llvm.loop !35

._crit_edge:                                      ; preds = %.lr.ph, %0
  store i8 0, ptr @_ZN19DerivedPointerTable7_activeE, align 1
  ret void
}